target datalayout = "e-m:e-p270:32:32-p271:32:32-p272:64:64-i64:64-i128:128-f80:128-n8:16:32:64-S128"
target triple = "x86_64-pc-linux-gnu"

%struct.HeapTupleData = type { i32, %struct.ItemPointerData, i32, ptr }
%struct.ItemPointerData = type { %struct.BlockIdData, i16 }
%struct.BlockIdData = type { i16, i16 }

; Function Attrs: nounwind uwtable
define dso_local void @heap_copytuple_with_tuple(ptr noundef %0, ptr noundef %1) #0 {
  %3 = alloca ptr, align 8
  %4 = alloca ptr, align 8
  store ptr %0, ptr %3, align 8
  store ptr %1, ptr %4, align 8
  %5 = load ptr, ptr %3, align 8
  %6 = icmp ne ptr %5, null
  br i1 %6, label %7, label %12

7:                                                ; preds = %2
  %8 = load ptr, ptr %3, align 8
  %9 = getelementptr inbounds nuw %struct.HeapTupleData, ptr %8, i32 0, i32 3
  %10 = load ptr, ptr %9, align 8
  %11 = icmp eq ptr %10, null
  br i1 %11, label %12, label %15

12:                                               ; preds = %7, %2
  %13 = load ptr, ptr %4, align 8
  %14 = getelementptr inbounds nuw %struct.HeapTupleData, ptr %13, i32 0, i32 3
  store ptr null, ptr %14, align 8
  br label %47

15:                                               ; preds = %7
  %16 = load ptr, ptr %3, align 8
  %17 = getelementptr inbounds nuw %struct.HeapTupleData, ptr %16, i32 0, i32 0
  %18 = load i32, ptr %17, align 8
  %19 = load ptr, ptr %4, align 8
  %20 = getelementptr inbounds nuw %struct.HeapTupleData, ptr %19, i32 0, i32 0
  store i32 %18, ptr %20, align 8
  %21 = load ptr, ptr %4, align 8
  %22 = getelementptr inbounds nuw %struct.HeapTupleData, ptr %21, i32 0, i32 1
  %23 = load ptr, ptr %3, align 8
  %24 = getelementptr inbounds nuw %struct.HeapTupleData, ptr %23, i32 0, i32 1
  call void @llvm.memcpy.p0.p0.i64(ptr align 4 %22, ptr align 4 %24, i64 6, i1 false)
  %25 = load ptr, ptr %3, align 8
  %26 = getelementptr inbounds nuw %struct.HeapTupleData, ptr %25, i32 0, i32 2
  %27 = load i32, ptr %26, align 4
  %28 = load ptr, ptr %4, align 8
  %29 = getelementptr inbounds nuw %struct.HeapTupleData, ptr %28, i32 0, i32 2
  store i32 %27, ptr %29, align 4
  %30 = load ptr, ptr %3, align 8
  %31 = getelementptr inbounds nuw %struct.HeapTupleData, ptr %30, i32 0, i32 0
  %32 = load i32, ptr %31, align 8
  %33 = zext i32 %32 to i64
  %34 = call ptr @palloc(i64 noundef %33)
  %35 = load ptr, ptr %4, align 8
  %36 = getelementptr inbounds nuw %struct.HeapTupleData, ptr %35, i32 0, i32 3
  store ptr %34, ptr %36, align 8
  %37 = load ptr, ptr %4, align 8
  %38 = getelementptr inbounds nuw %struct.HeapTupleData, ptr %37, i32 0, i32 3
  %39 = load ptr, ptr %38, align 8
  %40 = load ptr, ptr %3, align 8
  %41 = getelementptr inbounds nuw %struct.HeapTupleData, ptr %40, i32 0, i32 3
  %42 = load ptr, ptr %41, align 8
  %43 = load ptr, ptr %3, align 8
  %44 = getelementptr inbounds nuw %struct.HeapTupleData, ptr %43, i32 0, i32 0
  %45 = load i32, ptr %44, align 8
  %46 = zext i32 %45 to i64
  call void @llvm.memcpy.p0.p0.i64(ptr align 4 %39, ptr align 4 %42, i64 %46, i1 false)
  br label %47

47:                                               ; preds = %15, %12
  ret void
}