; Function Attrs: nounwind uwtable
define dso_local void @heap_copytuple_with_tuple(ptr noundef readonly captures(address_is_null) %0, ptr noundef writeonly captures(none) initializes((16, 24)) %1) local_unnamed_addr #0 {
  %.not = icmp eq ptr %0, null
  br i1 %.not, label %7, label %3

3:                                                ; preds = %2
  %4 = getelementptr inbounds nuw i8, ptr %0, i64 16
  %5 = load ptr, ptr %4, align 8
  %6 = icmp eq ptr %5, null
  br i1 %6, label %7, label %9

7:                                                ; preds = %3, %2
  %8 = getelementptr inbounds nuw i8, ptr %1, i64 16
  store ptr null, ptr %8, align 8
  br label %23

9:                                                ; preds = %3
  %10 = load i32, ptr %0, align 8
  store i32 %10, ptr %1, align 8
  %11 = getelementptr inbounds nuw i8, ptr %1, i64 4
  %12 = getelementptr inbounds nuw i8, ptr %0, i64 4
  tail call void @llvm.memcpy.p0.p0.i64(ptr noundef nonnull align 4 dereferenceable(6) %11, ptr noundef nonnull align 4 dereferenceable(6) %12, i64 6, i1 false)
  %13 = getelementptr inbounds nuw i8, ptr %0, i64 12
  %14 = load i32, ptr %13, align 4
  %15 = getelementptr inbounds nuw i8, ptr %1, i64 12
  store i32 %14, ptr %15, align 4
  %16 = load i32, ptr %0, align 8
  %17 = zext i32 %16 to i64
  %18 = tail call ptr @palloc(i64 noundef %17) #12
  %19 = getelementptr inbounds nuw i8, ptr %1, i64 16
  store ptr %18, ptr %19, align 8
  %20 = load ptr, ptr %4, align 8
  %21 = load i32, ptr %0, align 8
  %22 = zext i32 %21 to i64
  tail call void @llvm.memcpy.p0.p0.i64(ptr align 4 %18, ptr align 4 %20, i64 %22, i1 false)
  br label %23

23:                                               ; preds = %9, %7
  ret void
}